target datalayout = "e-m:e-p270:32:32-p271:32:32-p272:64:64-i64:64-i128:128-f80:128-n8:16:32:64-S128"
target triple = "x86_64-pc-linux-gnu"

%struct._GC_arrays = type { i64, i64, i64, ptr, i64, i64, i64, i64, i64, i64, i64, i64, i64, i64, ptr, ptr, ptr, ptr, ptr, ptr, ptr, ptr, i32, i32, i32, i64, i64, i64, i64, i64, ptr, ptr, ptr, i64, i64, i32, i64, i64, ptr, i64, %struct.dl_hashtbl_s, %struct.dl_hashtbl_s, %struct.fnlz_roots_s, i32, ptr, i64, i64, i32, i32, i64, i64, i64, ptr, [64 x ptr], [8 x i8], [64 x ptr], [129 x ptr], [129 x ptr], [129 x ptr], [129 x ptr], [2049 x i64], [129 x ptr], [4096 x i8], [4096 x i64], [4096 x i64], ptr, [2048 x %struct.roots], [512 x %struct.exclusion], [2048 x ptr] }
%struct.dl_hashtbl_s = type { ptr, i64, i32 }
%struct.fnlz_roots_s = type { ptr, ptr }
%struct.roots = type { ptr, ptr, ptr, i32 }
%struct.exclusion = type { ptr, ptr }

@GC_arrays = global %struct._GC_arrays zeroinitializer, align 8

; Function Attrs: nounwind uwtable
define i64 @GC_get_size_map_at(i32 noundef %0) #0 {
  %2 = alloca i64, align 8
  %3 = alloca i32, align 4
  store i32 %0, ptr %3, align 4
  %4 = load i32, ptr %3, align 4
  %5 = zext i32 %4 to i64
  %6 = icmp ugt i64 %5, 2048
  br i1 %6, label %7, label %8

7:                                                ; preds = %1
  store i64 -1, ptr %2, align 8
  br label %15

8:                                                ; preds = %1
  %9 = load i32, ptr %3, align 4
  %10 = sext i32 %9 to i64
  %11 = getelementptr inbounds %struct._GC_arrays, ptr @GC_arrays, i32 0, i32 60
  %12 = getelementptr inbounds [2049 x i64], ptr %11, i64 0, i64 %10
  %13 = load i64, ptr %12, align 8
  %14 = shl i64 %13, 4
  store i64 %14, ptr %2, align 8
  br label %15

15:                                               ; preds = %8, %7
  %16 = load i64, ptr %2, align 8
  ret i64 %16
}