; Function Attrs: mustprogress nofree norecurse nosync nounwind willreturn memory(read, argmem: none, inaccessiblemem: none) uwtable
define range(i64 -1, -15) i64 @GC_get_size_map_at(i32 noundef %0) local_unnamed_addr #8 {
  %2 = icmp ugt i32 %0, 2048
  br i1 %2, label %8, label %3

3:                                                ; preds = %1
  %4 = zext nneg i32 %0 to i64
  %5 = getelementptr inbounds nuw [2049 x i64], ptr getelementptr inbounds nuw (i8, ptr @GC_arrays, i64 5608), i64 0, i64 %4
  %6 = load i64, ptr %5, align 8
  %7 = shl i64 %6, 4
  br label %8

8:                                                ; preds = %1, %3
  %.0 = phi i64 [ %7, %3 ], [ -1, %1 ]
  ret i64 %.0
}